ccopy_reg
_reconstructor
p1
(cbashwords
wordbank
p2
c__builtin__
object
p3
NtRp4
(dp5
S'wstack'
p6
(lp7
sS'words'
p8
(lp9
(ibashwords
word
p10
(dp11
S'defin'
p12
S'corrupt morally or by intemperance of sensuality; to render ineffective'
p13
sS'hits'
p14
I0
sS'indate'
p15
cdatetime
date
p16
(S'\x07\xd9\x0b\x0c'
tRp17
sS'name'
p18
S'vitiate'
p19
sS'syns'
p20
(lp21
S'debase'
p22
aS' corrupt'
p23
aS' mar'
p24
aS' impair'
p25
aS' invalidate'
p26
asbasb.